target datalayout = "e-m:e-p270:32:32-p271:32:32-p272:64:64-i64:64-i128:128-f80:128-n8:16:32:64-S128"
target triple = "x86_64-pc-linux-gnu"

%struct.H5VL_object_t = type { ptr, ptr, i64 }

@H5_libinit_g = external global i8, align 1
@H5_libterm_g = external global i8, align 1
@.str = private unnamed_addr constant [97 x i8] c"generated/home/dtcxzyw/WorkSpace/Projects/compilers/llvm-opt-benchmark/bench/hdf5/hdf5/src/H5A.c\00", align 1
@H5E_FUNC_g = external global i64, align 8
@H5E_CANTINIT_g = external global i64, align 8
@.str.1 = private unnamed_addr constant [30 x i8] c"library initialization failed\00", align 1
@H5E_CANTSET_g = external global i64, align 8
@.str.2 = private unnamed_addr constant [22 x i8] c"can't set API context\00", align 1
@H5E_ATTR_g = external global i64, align 8
@.str.6 = private unnamed_addr constant [9 x i8] c"app_file\00", align 1
@.str.7 = private unnamed_addr constant [9 x i8] c"app_func\00", align 1
@.str.8 = private unnamed_addr constant [9 x i8] c"app_line\00", align 1
@.str.15 = private unnamed_addr constant [6 x i8] c"es_id\00", align 1
@H5E_CANTINSERT_g = external global i64, align 8
@.str.17 = private unnamed_addr constant [34 x i8] c"can't insert token into event set\00", align 1
@H5E_WRITEERROR_g = external global i64, align 8
@__func__.H5Awrite_async = private unnamed_addr constant [15 x i8] c"H5Awrite_async\00", align 1
@.str.30 = private unnamed_addr constant [32 x i8] c"can't asynchronously write data\00", align 1
@.str.31 = private unnamed_addr constant [12 x i8] c"*s*sIuii*xi\00", align 1
@.str.32 = private unnamed_addr constant [8 x i8] c"attr_id\00", align 1
@.str.33 = private unnamed_addr constant [9 x i8] c"dtype_id\00", align 1
@.str.34 = private unnamed_addr constant [4 x i8] c"buf\00", align 1

; Function Attrs: nounwind uwtable
define i32 @H5Awrite_async(ptr noundef %0, ptr noundef %1, i32 noundef %2, i64 noundef %3, i64 noundef %4, ptr noundef %5, i64 noundef %6) #0 {
  %8 = alloca ptr, align 8
  %9 = alloca ptr, align 8
  %10 = alloca i32, align 4
  %11 = alloca i64, align 8
  %12 = alloca i64, align 8
  %13 = alloca ptr, align 8
  %14 = alloca i64, align 8
  %15 = alloca ptr, align 8
  %16 = alloca ptr, align 8
  %17 = alloca ptr, align 8
  %18 = alloca i32, align 4
  %19 = alloca i8, align 1
  %20 = alloca i8, align 1
  store ptr %0, ptr %8, align 8
  store ptr %1, ptr %9, align 8
  store i32 %2, ptr %10, align 4
  store i64 %3, ptr %11, align 8
  store i64 %4, ptr %12, align 8
  store ptr %5, ptr %13, align 8
  store i64 %6, ptr %14, align 8
  store ptr null, ptr %15, align 8
  store ptr null, ptr %16, align 8
  store ptr null, ptr %17, align 8
  store i32 0, ptr %18, align 4
  store i8 0, ptr %19, align 1
  store i8 0, ptr %20, align 1
  %21 = load i8, ptr @H5_libinit_g, align 1
  %22 = trunc i8 %21 to i1
  br i1 %22, label %27, label %23

23:                                               ; preds = %7
  %24 = load i8, ptr @H5_libterm_g, align 1
  %25 = trunc i8 %24 to i1
  %26 = xor i1 %25, true
  br label %27

27:                                               ; preds = %23, %7
  %28 = phi i1 [ false, %7 ], [ %26, %23 ]
  %29 = xor i1 %28, true
  %30 = xor i1 %29, true
  %31 = zext i1 %30 to i32
  %32 = sext i32 %31 to i64
  %33 = icmp ne i64 %32, 0
  br i1 %33, label %34, label %58

34:                                               ; preds = %27
  %35 = call i32 @H5_init_library()
  %36 = icmp slt i32 %35, 0
  %37 = xor i1 %36, true
  %38 = xor i1 %37, true
  %39 = zext i1 %38 to i32
  %40 = sext i32 %39 to i64
  %41 = icmp ne i64 %40, 0
  br i1 %41, label %42, label %57

42:                                               ; preds = %34
  br label %43

43:                                               ; preds = %42
  br label %44

44:                                               ; preds = %43
  br label %45

45:                                               ; preds = %44
  %46 = load i64, ptr @H5E_FUNC_g, align 8
  %47 = load i64, ptr @H5E_CANTINIT_g, align 8
  %48 = call i32 (ptr, ptr, i32, i64, i64, ptr, ...) @H5E_printf_stack(ptr noundef @.str, ptr noundef @__func__.H5Awrite_async, i32 noundef 939, i64 noundef %46, i64 noundef %47, ptr noundef @.str.1)
  br label %49

49:                                               ; preds = %45
  store i8 1, ptr %20, align 1
  %50 = load i8, ptr %20, align 1
  %51 = trunc i8 %50 to i1
  %52 = zext i1 %51 to i8
  store i8 %52, ptr %20, align 1
  br label %53

53:                                               ; preds = %49
  br label %54

54:                                               ; preds = %53
  store i32 -1, ptr %18, align 4
  br label %144

55:                                               ; No predecessors!
  br label %56

56:                                               ; preds = %55
  br label %57

57:                                               ; preds = %56, %34
  br label %58

58:                                               ; preds = %57, %27
  %59 = call i32 @H5CX_push()
  %60 = icmp slt i32 %59, 0
  %61 = xor i1 %60, true
  %62 = xor i1 %61, true
  %63 = zext i1 %62 to i32
  %64 = sext i32 %63 to i64
  %65 = icmp ne i64 %64, 0
  br i1 %65, label %66, label %81

66:                                               ; preds = %58
  br label %67

67:                                               ; preds = %66
  br label %68

68:                                               ; preds = %67
  br label %69

69:                                               ; preds = %68
  %70 = load i64, ptr @H5E_FUNC_g, align 8
  %71 = load i64, ptr @H5E_CANTSET_g, align 8
  %72 = call i32 (ptr, ptr, i32, i64, i64, ptr, ...) @H5E_printf_stack(ptr noundef @.str, ptr noundef @__func__.H5Awrite_async, i32 noundef 939, i64 noundef %70, i64 noundef %71, ptr noundef @.str.2)
  br label %73

73:                                               ; preds = %69
  store i8 1, ptr %20, align 1
  %74 = load i8, ptr %20, align 1
  %75 = trunc i8 %74 to i1
  %76 = zext i1 %75 to i8
  store i8 %76, ptr %20, align 1
  br label %77

77:                                               ; preds = %73
  br label %78

78:                                               ; preds = %77
  store i32 -1, ptr %18, align 4
  br label %144

79:                                               ; No predecessors!
  br label %80

80:                                               ; preds = %79
  br label %82

81:                                               ; preds = %58
  store i8 1, ptr %19, align 1
  br label %82

82:                                               ; preds = %81, %80
  %83 = call i32 @H5E_clear_stack()
  %84 = load i64, ptr %14, align 8
  %85 = icmp ne i64 0, %84
  br i1 %85, label %86, label %87

86:                                               ; preds = %82
  store ptr %16, ptr %17, align 8
  br label %87

87:                                               ; preds = %86, %82
  %88 = load i64, ptr %11, align 8
  %89 = load i64, ptr %12, align 8
  %90 = load ptr, ptr %13, align 8
  %91 = load ptr, ptr %17, align 8
  %92 = call i32 @H5A__write_api_common(i64 noundef %88, i64 noundef %89, ptr noundef %90, ptr noundef %91, ptr noundef %15)
  %93 = icmp slt i32 %92, 0
  br i1 %93, label %94, label %109

94:                                               ; preds = %87
  br label %95

95:                                               ; preds = %94
  br label %96

96:                                               ; preds = %95
  br label %97

97:                                               ; preds = %96
  %98 = load i64, ptr @H5E_ATTR_g, align 8
  %99 = load i64, ptr @H5E_WRITEERROR_g, align 8
  %100 = call i32 (ptr, ptr, i32, i64, i64, ptr, ...) @H5E_printf_stack(ptr noundef @.str, ptr noundef @__func__.H5Awrite_async, i32 noundef 947, i64 noundef %98, i64 noundef %99, ptr noundef @.str.30)
  br label %101

101:                                              ; preds = %97
  store i8 1, ptr %20, align 1
  %102 = load i8, ptr %20, align 1
  %103 = trunc i8 %102 to i1
  %104 = zext i1 %103 to i8
  store i8 %104, ptr %20, align 1
  br label %105

105:                                              ; preds = %101
  br label %106

106:                                              ; preds = %105
  store i32 -1, ptr %18, align 4
  br label %144

107:                                              ; No predecessors!
  br label %108

108:                                              ; preds = %107
  br label %109

109:                                              ; preds = %108, %87
  %110 = load ptr, ptr %16, align 8
  %111 = icmp ne ptr null, %110
  br i1 %111, label %112, label %143

112:                                              ; preds = %109
  %113 = load i64, ptr %14, align 8
  %114 = load ptr, ptr %15, align 8
  %115 = getelementptr inbounds %struct.H5VL_object_t, ptr %114, i32 0, i32 1
  %116 = load ptr, ptr %115, align 8
  %117 = load ptr, ptr %16, align 8
  %118 = load ptr, ptr %8, align 8
  %119 = load ptr, ptr %9, align 8
  %120 = load i32, ptr %10, align 4
  %121 = load i64, ptr %11, align 8
  %122 = load i64, ptr %12, align 8
  %123 = load ptr, ptr %13, align 8
  %124 = load i64, ptr %14, align 8
  %125 = call i32 (i64, ptr, ptr, ptr, ptr, ...) @H5ES_insert(i64 noundef %113, ptr noundef %116, ptr noundef %117, ptr noundef @__func__.H5Awrite_async, ptr noundef @.str.31, ptr noundef @.str.6, ptr noundef %118, ptr noundef @.str.7, ptr noundef %119, ptr noundef @.str.8, i32 noundef %120, ptr noundef @.str.32, i64 noundef %121, ptr noundef @.str.33, i64 noundef %122, ptr noundef @.str.34, ptr noundef %123, ptr noundef @.str.15, i64 noundef %124)
  %126 = icmp slt i32 %125, 0
  br i1 %126, label %127, label %142

127:                                              ; preds = %112
  br label %128

128:                                              ; preds = %127
  br label %129

129:                                              ; preds = %128
  br label %130

130:                                              ; preds = %129
  %131 = load i64, ptr @H5E_ATTR_g, align 8
  %132 = load i64, ptr @H5E_CANTINSERT_g, align 8
  %133 = call i32 (ptr, ptr, i32, i64, i64, ptr, ...) @H5E_printf_stack(ptr noundef @.str, ptr noundef @__func__.H5Awrite_async, i32 noundef 955, i64 noundef %131, i64 noundef %132, ptr noundef @.str.17)
  br label %134

134:                                              ; preds = %130
  store i8 1, ptr %20, align 1
  %135 = load i8, ptr %20, align 1
  %136 = trunc i8 %135 to i1
  %137 = zext i1 %136 to i8
  store i8 %137, ptr %20, align 1
  br label %138

138:                                              ; preds = %134
  br label %139

139:                                              ; preds = %138
  store i32 -1, ptr %18, align 4
  br label %144

140:                                              ; No predecessors!
  br label %141

141:                                              ; preds = %140
  br label %142

142:                                              ; preds = %141, %112
  br label %143

143:                                              ; preds = %142, %109
  br label %144

144:                                              ; preds = %143, %139, %106, %78, %54
  %145 = load i8, ptr %19, align 1
  %146 = trunc i8 %145 to i1
  %147 = xor i1 %146, true
  %148 = xor i1 %147, true
  %149 = zext i1 %148 to i32
  %150 = sext i32 %149 to i64
  %151 = icmp ne i64 %150, 0
  br i1 %151, label %152, label %154

152:                                              ; preds = %144
  %153 = call i32 @H5CX_pop(i1 noundef zeroext true)
  store i8 0, ptr %19, align 1
  br label %154

154:                                              ; preds = %152, %144
  %155 = load i8, ptr %20, align 1
  %156 = trunc i8 %155 to i1
  %157 = xor i1 %156, true
  %158 = xor i1 %157, true
  %159 = zext i1 %158 to i32
  %160 = sext i32 %159 to i64
  %161 = icmp ne i64 %160, 0
  br i1 %161, label %162, label %164

162:                                              ; preds = %154
  %163 = call i32 @H5E_dump_api_stack()
  br label %164

164:                                              ; preds = %162, %154
  %165 = load i32, ptr %18, align 4
  ret i32 %165
}